; Function Attrs: mustprogress uwtable
define hidden noundef ptr @_ZN3smt17theory_array_base8mk_storeEjPKP4expr(ptr nocapture noundef nonnull readonly align 8 dereferenceable(249) %this, i32 noundef %num_args, ptr noundef %args) local_unnamed_addr #3 align 2 {
entry:
  %m = getelementptr inbounds i8, ptr %this, i64 24
  %0 = load ptr, ptr %m, align 8
  %m_id.i = getelementptr inbounds i8, ptr %this, i64 8
  %1 = load i32, ptr %m_id.i, align 8
  %call2 = tail call noundef ptr @_ZN11ast_manager6mk_appEiijPK9parameterjPKP4exprP4sort(ptr noundef nonnull align 8 dereferenceable(976) %0, i32 noundef %1, i32 noundef 0, i32 noundef 0, ptr noundef null, i32 noundef %num_args, ptr noundef %args, ptr noundef null)
  ret ptr %call2
}